target datalayout = "e-m:e-p270:32:32-p271:32:32-p272:64:64-i64:64-i128:128-f80:128-n8:16:32:64-S128"
target triple = "x86_64-pc-linux-gnu"

%struct.IDAMemRec = type { ptr, double, ptr, ptr, i32, double, double, ptr, i32, i32, ptr, ptr, i32, i32, [6 x ptr], [6 x double], [6 x double], [6 x double], [6 x double], [6 x double], ptr, ptr, ptr, ptr, ptr, ptr, ptr, ptr, ptr, ptr, ptr, ptr, ptr, ptr, ptr, ptr, ptr, double, ptr, ptr, i32, i32, i32, i32, i32, i32, i32, i32, double, double, double, i32, double, i32, i32, i32, i32, i32, double, double, double, double, double, double, double, double, double, double, double, double, double, double, double, double, i32, i32, i32, i32, i64, double, double, double, double, double, double, double, double, double, i64, i64, i64, i64, i64, i64, i64, i64, i64, i64, i64, double, i32, i32, i32, i32, i32, ptr, i32, ptr, ptr, ptr, ptr, ptr, ptr, ptr, double, i32, ptr, i32, ptr, ptr, double, double, double, ptr, ptr, ptr, double, double, i32, i32, i64, ptr, i32, [6 x double], [5 x double], [6 x ptr], [6 x ptr] }

; Function Attrs: nounwind uwtable
define internal void @IDAFreeVectors(ptr noundef %0) #0 {
  %2 = alloca ptr, align 8
  %3 = alloca i32, align 4
  %4 = alloca i32, align 4
  store ptr %0, ptr %2, align 8, !tbaa !8
  call void @llvm.lifetime.start.p0(i64 4, ptr %3) #10
  call void @llvm.lifetime.start.p0(i64 4, ptr %4) #10
  %5 = load ptr, ptr %2, align 8, !tbaa !8
  %6 = getelementptr inbounds nuw %struct.IDAMemRec, ptr %5, i32 0, i32 20
  %7 = load ptr, ptr %6, align 8, !tbaa !125
  call void @N_VDestroy(ptr noundef %7)
  %8 = load ptr, ptr %2, align 8, !tbaa !8
  %9 = getelementptr inbounds nuw %struct.IDAMemRec, ptr %8, i32 0, i32 20
  store ptr null, ptr %9, align 8, !tbaa !125
  %10 = load ptr, ptr %2, align 8, !tbaa !8
  %11 = getelementptr inbounds nuw %struct.IDAMemRec, ptr %10, i32 0, i32 29
  %12 = load ptr, ptr %11, align 8, !tbaa !126
  call void @N_VDestroy(ptr noundef %12)
  %13 = load ptr, ptr %2, align 8, !tbaa !8
  %14 = getelementptr inbounds nuw %struct.IDAMemRec, ptr %13, i32 0, i32 29
  store ptr null, ptr %14, align 8, !tbaa !126
  %15 = load ptr, ptr %2, align 8, !tbaa !8
  %16 = getelementptr inbounds nuw %struct.IDAMemRec, ptr %15, i32 0, i32 25
  %17 = load ptr, ptr %16, align 8, !tbaa !127
  call void @N_VDestroy(ptr noundef %17)
  %18 = load ptr, ptr %2, align 8, !tbaa !8
  %19 = getelementptr inbounds nuw %struct.IDAMemRec, ptr %18, i32 0, i32 25
  store ptr null, ptr %19, align 8, !tbaa !127
  %20 = load ptr, ptr %2, align 8, !tbaa !8
  %21 = getelementptr inbounds nuw %struct.IDAMemRec, ptr %20, i32 0, i32 23
  %22 = load ptr, ptr %21, align 8, !tbaa !128
  call void @N_VDestroy(ptr noundef %22)
  %23 = load ptr, ptr %2, align 8, !tbaa !8
  %24 = getelementptr inbounds nuw %struct.IDAMemRec, ptr %23, i32 0, i32 23
  store ptr null, ptr %24, align 8, !tbaa !128
  %25 = load ptr, ptr %2, align 8, !tbaa !8
  %26 = getelementptr inbounds nuw %struct.IDAMemRec, ptr %25, i32 0, i32 24
  %27 = load ptr, ptr %26, align 8, !tbaa !129
  call void @N_VDestroy(ptr noundef %27)
  %28 = load ptr, ptr %2, align 8, !tbaa !8
  %29 = getelementptr inbounds nuw %struct.IDAMemRec, ptr %28, i32 0, i32 24
  store ptr null, ptr %29, align 8, !tbaa !129
  %30 = load ptr, ptr %2, align 8, !tbaa !8
  %31 = getelementptr inbounds nuw %struct.IDAMemRec, ptr %30, i32 0, i32 28
  %32 = load ptr, ptr %31, align 8, !tbaa !130
  call void @N_VDestroy(ptr noundef %32)
  %33 = load ptr, ptr %2, align 8, !tbaa !8
  %34 = getelementptr inbounds nuw %struct.IDAMemRec, ptr %33, i32 0, i32 28
  store ptr null, ptr %34, align 8, !tbaa !130
  %35 = load ptr, ptr %2, align 8, !tbaa !8
  %36 = getelementptr inbounds nuw %struct.IDAMemRec, ptr %35, i32 0, i32 30
  %37 = load ptr, ptr %36, align 8, !tbaa !131
  call void @N_VDestroy(ptr noundef %37)
  %38 = load ptr, ptr %2, align 8, !tbaa !8
  %39 = getelementptr inbounds nuw %struct.IDAMemRec, ptr %38, i32 0, i32 30
  store ptr null, ptr %39, align 8, !tbaa !131
  %40 = load ptr, ptr %2, align 8, !tbaa !8
  %41 = getelementptr inbounds nuw %struct.IDAMemRec, ptr %40, i32 0, i32 31
  %42 = load ptr, ptr %41, align 8, !tbaa !132
  call void @N_VDestroy(ptr noundef %42)
  %43 = load ptr, ptr %2, align 8, !tbaa !8
  %44 = getelementptr inbounds nuw %struct.IDAMemRec, ptr %43, i32 0, i32 31
  store ptr null, ptr %44, align 8, !tbaa !132
  %45 = load ptr, ptr %2, align 8, !tbaa !8
  %46 = getelementptr inbounds nuw %struct.IDAMemRec, ptr %45, i32 0, i32 32
  %47 = load ptr, ptr %46, align 8, !tbaa !133
  call void @N_VDestroy(ptr noundef %47)
  %48 = load ptr, ptr %2, align 8, !tbaa !8
  %49 = getelementptr inbounds nuw %struct.IDAMemRec, ptr %48, i32 0, i32 32
  store ptr null, ptr %49, align 8, !tbaa !133
  %50 = load ptr, ptr %2, align 8, !tbaa !8
  %51 = getelementptr inbounds nuw %struct.IDAMemRec, ptr %50, i32 0, i32 77
  %52 = load i32, ptr %51, align 4, !tbaa !48
  %53 = icmp sgt i32 %52, 3
  br i1 %53, label %54, label %58

54:                                               ; preds = %1
  %55 = load ptr, ptr %2, align 8, !tbaa !8
  %56 = getelementptr inbounds nuw %struct.IDAMemRec, ptr %55, i32 0, i32 77
  %57 = load i32, ptr %56, align 4, !tbaa !48
  br label %59

58:                                               ; preds = %1
  br label %59

59:                                               ; preds = %58, %54
  %60 = phi i32 [ %57, %54 ], [ 3, %58 ]
  store i32 %60, ptr %4, align 4, !tbaa !64
  store i32 0, ptr %3, align 4, !tbaa !64
  br label %61

61:                                               ; preds = %77, %59
  %62 = load i32, ptr %3, align 4, !tbaa !64
  %63 = load i32, ptr %4, align 4, !tbaa !64
  %64 = icmp sle i32 %62, %63
  br i1 %64, label %65, label %80

65:                                               ; preds = %61
  %66 = load ptr, ptr %2, align 8, !tbaa !8
  %67 = getelementptr inbounds nuw %struct.IDAMemRec, ptr %66, i32 0, i32 14
  %68 = load i32, ptr %3, align 4, !tbaa !64
  %69 = sext i32 %68 to i64
  %70 = getelementptr inbounds [6 x ptr], ptr %67, i64 0, i64 %69
  %71 = load ptr, ptr %70, align 8, !tbaa !75
  call void @N_VDestroy(ptr noundef %71)
  %72 = load ptr, ptr %2, align 8, !tbaa !8
  %73 = getelementptr inbounds nuw %struct.IDAMemRec, ptr %72, i32 0, i32 14
  %74 = load i32, ptr %3, align 4, !tbaa !64
  %75 = sext i32 %74 to i64
  %76 = getelementptr inbounds [6 x ptr], ptr %73, i64 0, i64 %75
  store ptr null, ptr %76, align 8, !tbaa !75
  br label %77

77:                                               ; preds = %65
  %78 = load i32, ptr %3, align 4, !tbaa !64
  %79 = add nsw i32 %78, 1
  store i32 %79, ptr %3, align 4, !tbaa !64
  br label %61

80:                                               ; preds = %61
  %81 = load i32, ptr %4, align 4, !tbaa !64
  %82 = add nsw i32 %81, 10
  %83 = sext i32 %82 to i64
  %84 = load ptr, ptr %2, align 8, !tbaa !8
  %85 = getelementptr inbounds nuw %struct.IDAMemRec, ptr %84, i32 0, i32 95
  %86 = load i64, ptr %85, align 8, !tbaa !81
  %87 = mul nsw i64 %83, %86
  %88 = load ptr, ptr %2, align 8, !tbaa !8
  %89 = getelementptr inbounds nuw %struct.IDAMemRec, ptr %88, i32 0, i32 97
  %90 = load i64, ptr %89, align 8, !tbaa !56
  %91 = sub nsw i64 %90, %87
  store i64 %91, ptr %89, align 8, !tbaa !56
  %92 = load i32, ptr %4, align 4, !tbaa !64
  %93 = add nsw i32 %92, 10
  %94 = sext i32 %93 to i64
  %95 = load ptr, ptr %2, align 8, !tbaa !8
  %96 = getelementptr inbounds nuw %struct.IDAMemRec, ptr %95, i32 0, i32 96
  %97 = load i64, ptr %96, align 8, !tbaa !82
  %98 = mul nsw i64 %94, %97
  %99 = load ptr, ptr %2, align 8, !tbaa !8
  %100 = getelementptr inbounds nuw %struct.IDAMemRec, ptr %99, i32 0, i32 98
  %101 = load i64, ptr %100, align 8, !tbaa !57
  %102 = sub nsw i64 %101, %98
  store i64 %102, ptr %100, align 8, !tbaa !57
  %103 = load ptr, ptr %2, align 8, !tbaa !8
  %104 = getelementptr inbounds nuw %struct.IDAMemRec, ptr %103, i32 0, i32 101
  %105 = load i32, ptr %104, align 4, !tbaa !58
  %106 = icmp ne i32 %105, 0
  br i1 %106, label %107, label %127

107:                                              ; preds = %80
  %108 = load ptr, ptr %2, align 8, !tbaa !8
  %109 = getelementptr inbounds nuw %struct.IDAMemRec, ptr %108, i32 0, i32 7
  %110 = load ptr, ptr %109, align 8, !tbaa !134
  call void @N_VDestroy(ptr noundef %110)
  %111 = load ptr, ptr %2, align 8, !tbaa !8
  %112 = getelementptr inbounds nuw %struct.IDAMemRec, ptr %111, i32 0, i32 7
  store ptr null, ptr %112, align 8, !tbaa !134
  %113 = load ptr, ptr %2, align 8, !tbaa !8
  %114 = getelementptr inbounds nuw %struct.IDAMemRec, ptr %113, i32 0, i32 95
  %115 = load i64, ptr %114, align 8, !tbaa !81
  %116 = load ptr, ptr %2, align 8, !tbaa !8
  %117 = getelementptr inbounds nuw %struct.IDAMemRec, ptr %116, i32 0, i32 97
  %118 = load i64, ptr %117, align 8, !tbaa !56
  %119 = sub nsw i64 %118, %115
  store i64 %119, ptr %117, align 8, !tbaa !56
  %120 = load ptr, ptr %2, align 8, !tbaa !8
  %121 = getelementptr inbounds nuw %struct.IDAMemRec, ptr %120, i32 0, i32 96
  %122 = load i64, ptr %121, align 8, !tbaa !82
  %123 = load ptr, ptr %2, align 8, !tbaa !8
  %124 = getelementptr inbounds nuw %struct.IDAMemRec, ptr %123, i32 0, i32 98
  %125 = load i64, ptr %124, align 8, !tbaa !57
  %126 = sub nsw i64 %125, %122
  store i64 %126, ptr %124, align 8, !tbaa !57
  br label %127

127:                                              ; preds = %107, %80
  %128 = load ptr, ptr %2, align 8, !tbaa !8
  %129 = getelementptr inbounds nuw %struct.IDAMemRec, ptr %128, i32 0, i32 102
  %130 = load i32, ptr %129, align 8, !tbaa !59
  %131 = icmp ne i32 %130, 0
  br i1 %131, label %132, label %152

132:                                              ; preds = %127
  %133 = load ptr, ptr %2, align 8, !tbaa !8
  %134 = getelementptr inbounds nuw %struct.IDAMemRec, ptr %133, i32 0, i32 27
  %135 = load ptr, ptr %134, align 8, !tbaa !44
  call void @N_VDestroy(ptr noundef %135)
  %136 = load ptr, ptr %2, align 8, !tbaa !8
  %137 = getelementptr inbounds nuw %struct.IDAMemRec, ptr %136, i32 0, i32 27
  store ptr null, ptr %137, align 8, !tbaa !44
  %138 = load ptr, ptr %2, align 8, !tbaa !8
  %139 = getelementptr inbounds nuw %struct.IDAMemRec, ptr %138, i32 0, i32 95
  %140 = load i64, ptr %139, align 8, !tbaa !81
  %141 = load ptr, ptr %2, align 8, !tbaa !8
  %142 = getelementptr inbounds nuw %struct.IDAMemRec, ptr %141, i32 0, i32 97
  %143 = load i64, ptr %142, align 8, !tbaa !56
  %144 = sub nsw i64 %143, %140
  store i64 %144, ptr %142, align 8, !tbaa !56
  %145 = load ptr, ptr %2, align 8, !tbaa !8
  %146 = getelementptr inbounds nuw %struct.IDAMemRec, ptr %145, i32 0, i32 96
  %147 = load i64, ptr %146, align 8, !tbaa !82
  %148 = load ptr, ptr %2, align 8, !tbaa !8
  %149 = getelementptr inbounds nuw %struct.IDAMemRec, ptr %148, i32 0, i32 98
  %150 = load i64, ptr %149, align 8, !tbaa !57
  %151 = sub nsw i64 %150, %147
  store i64 %151, ptr %149, align 8, !tbaa !57
  br label %152

152:                                              ; preds = %132, %127
  %153 = load ptr, ptr %2, align 8, !tbaa !8
  %154 = getelementptr inbounds nuw %struct.IDAMemRec, ptr %153, i32 0, i32 103
  %155 = load i32, ptr %154, align 4, !tbaa !60
  %156 = icmp ne i32 %155, 0
  br i1 %156, label %157, label %177

157:                                              ; preds = %152
  %158 = load ptr, ptr %2, align 8, !tbaa !8
  %159 = getelementptr inbounds nuw %struct.IDAMemRec, ptr %158, i32 0, i32 26
  %160 = load ptr, ptr %159, align 8, !tbaa !43
  call void @N_VDestroy(ptr noundef %160)
  %161 = load ptr, ptr %2, align 8, !tbaa !8
  %162 = getelementptr inbounds nuw %struct.IDAMemRec, ptr %161, i32 0, i32 26
  store ptr null, ptr %162, align 8, !tbaa !43
  %163 = load ptr, ptr %2, align 8, !tbaa !8
  %164 = getelementptr inbounds nuw %struct.IDAMemRec, ptr %163, i32 0, i32 95
  %165 = load i64, ptr %164, align 8, !tbaa !81
  %166 = load ptr, ptr %2, align 8, !tbaa !8
  %167 = getelementptr inbounds nuw %struct.IDAMemRec, ptr %166, i32 0, i32 97
  %168 = load i64, ptr %167, align 8, !tbaa !56
  %169 = sub nsw i64 %168, %165
  store i64 %169, ptr %167, align 8, !tbaa !56
  %170 = load ptr, ptr %2, align 8, !tbaa !8
  %171 = getelementptr inbounds nuw %struct.IDAMemRec, ptr %170, i32 0, i32 96
  %172 = load i64, ptr %171, align 8, !tbaa !82
  %173 = load ptr, ptr %2, align 8, !tbaa !8
  %174 = getelementptr inbounds nuw %struct.IDAMemRec, ptr %173, i32 0, i32 98
  %175 = load i64, ptr %174, align 8, !tbaa !57
  %176 = sub nsw i64 %175, %172
  store i64 %176, ptr %174, align 8, !tbaa !57
  br label %177

177:                                              ; preds = %157, %152
  call void @llvm.lifetime.end.p0(i64 4, ptr %4) #10
  call void @llvm.lifetime.end.p0(i64 4, ptr %3) #10
  ret void
}