; Function Attrs: nounwind uwtable
define internal fastcc void @IDAFreeVectors(ptr noundef nonnull captures(none) %0) unnamed_addr #0 {
  %2 = getelementptr inbounds nuw i8, ptr %0, i64 384
  %3 = load ptr, ptr %2, align 8, !tbaa !69
  tail call void @N_VDestroy(ptr noundef %3) #13
  store ptr null, ptr %2, align 8, !tbaa !69
  %4 = getelementptr inbounds nuw i8, ptr %0, i64 456
  %5 = load ptr, ptr %4, align 8, !tbaa !70
  tail call void @N_VDestroy(ptr noundef %5) #13
  store ptr null, ptr %4, align 8, !tbaa !70
  %6 = getelementptr inbounds nuw i8, ptr %0, i64 424
  %7 = load ptr, ptr %6, align 8, !tbaa !71
  tail call void @N_VDestroy(ptr noundef %7) #13
  store ptr null, ptr %6, align 8, !tbaa !71
  %8 = getelementptr inbounds nuw i8, ptr %0, i64 408
  %9 = load ptr, ptr %8, align 8, !tbaa !72
  tail call void @N_VDestroy(ptr noundef %9) #13
  store ptr null, ptr %8, align 8, !tbaa !72
  %10 = getelementptr inbounds nuw i8, ptr %0, i64 416
  %11 = load ptr, ptr %10, align 8, !tbaa !73
  tail call void @N_VDestroy(ptr noundef %11) #13
  store ptr null, ptr %10, align 8, !tbaa !73
  %12 = getelementptr inbounds nuw i8, ptr %0, i64 448
  %13 = load ptr, ptr %12, align 8, !tbaa !74
  tail call void @N_VDestroy(ptr noundef %13) #13
  store ptr null, ptr %12, align 8, !tbaa !74
  %14 = getelementptr inbounds nuw i8, ptr %0, i64 464
  %15 = load ptr, ptr %14, align 8, !tbaa !75
  tail call void @N_VDestroy(ptr noundef %15) #13
  store ptr null, ptr %14, align 8, !tbaa !75
  %16 = getelementptr inbounds nuw i8, ptr %0, i64 472
  %17 = load ptr, ptr %16, align 8, !tbaa !76
  tail call void @N_VDestroy(ptr noundef %17) #13
  store ptr null, ptr %16, align 8, !tbaa !76
  %18 = getelementptr inbounds nuw i8, ptr %0, i64 480
  %19 = load ptr, ptr %18, align 8, !tbaa !77
  tail call void @N_VDestroy(ptr noundef %19) #13
  store ptr null, ptr %18, align 8, !tbaa !77
  %20 = getelementptr inbounds nuw i8, ptr %0, i64 780
  %21 = load i32, ptr %20, align 4, !tbaa !31
  %spec.select = tail call i32 @llvm.smax.i32(i32 %21, i32 3)
  %22 = getelementptr inbounds nuw i8, ptr %0, i64 96
  %23 = add nuw i32 %spec.select, 1
  %wide.trip.count = zext i32 %23 to i64
  br label %24

24:                                               ; preds = %1, %24
  %indvars.iv = phi i64 [ 0, %1 ], [ %indvars.iv.next, %24 ]
  %25 = getelementptr inbounds nuw [6 x ptr], ptr %22, i64 0, i64 %indvars.iv
  %26 = load ptr, ptr %25, align 8, !tbaa !78
  tail call void @N_VDestroy(ptr noundef %26) #13
  store ptr null, ptr %25, align 8, !tbaa !78
  %indvars.iv.next = add nuw nsw i64 %indvars.iv, 1
  %exitcond.not = icmp eq i64 %indvars.iv.next, %wide.trip.count
  br i1 %exitcond.not, label %27, label %24

27:                                               ; preds = %24
  %28 = add nuw nsw i32 %spec.select, 10
  %29 = zext nneg i32 %28 to i64
  %30 = getelementptr inbounds nuw i8, ptr %0, i64 920
  %31 = load i64, ptr %30, align 8, !tbaa !67
  %32 = mul nsw i64 %31, %29
  %33 = getelementptr inbounds nuw i8, ptr %0, i64 936
  %34 = load i64, ptr %33, align 8, !tbaa !38
  %35 = sub nsw i64 %34, %32
  store i64 %35, ptr %33, align 8, !tbaa !38
  %36 = getelementptr inbounds nuw i8, ptr %0, i64 928
  %37 = load i64, ptr %36, align 8, !tbaa !68
  %38 = mul nsw i64 %37, %29
  %39 = getelementptr inbounds nuw i8, ptr %0, i64 944
  %40 = load i64, ptr %39, align 8, !tbaa !39
  %41 = sub nsw i64 %40, %38
  store i64 %41, ptr %39, align 8, !tbaa !39
  %42 = getelementptr inbounds nuw i8, ptr %0, i64 964
  %43 = load i32, ptr %42, align 4, !tbaa !91
  %.not55 = icmp eq i32 %43, 0
  br i1 %.not55, label %53, label %44

44:                                               ; preds = %27
  %45 = getelementptr inbounds nuw i8, ptr %0, i64 56
  %46 = load ptr, ptr %45, align 8, !tbaa !92
  tail call void @N_VDestroy(ptr noundef %46) #13
  store ptr null, ptr %45, align 8, !tbaa !92
  %47 = load i64, ptr %30, align 8, !tbaa !67
  %48 = load i64, ptr %33, align 8, !tbaa !38
  %49 = sub nsw i64 %48, %47
  store i64 %49, ptr %33, align 8, !tbaa !38
  %50 = load i64, ptr %36, align 8, !tbaa !68
  %51 = load i64, ptr %39, align 8, !tbaa !39
  %52 = sub nsw i64 %51, %50
  store i64 %52, ptr %39, align 8, !tbaa !39
  br label %53

53:                                               ; preds = %44, %27
  %54 = getelementptr inbounds nuw i8, ptr %0, i64 968
  %55 = load i32, ptr %54, align 8, !tbaa !93
  %.not56 = icmp eq i32 %55, 0
  br i1 %.not56, label %65, label %56

56:                                               ; preds = %53
  %57 = getelementptr inbounds nuw i8, ptr %0, i64 440
  %58 = load ptr, ptr %57, align 8, !tbaa !94
  tail call void @N_VDestroy(ptr noundef %58) #13
  store ptr null, ptr %57, align 8, !tbaa !94
  %59 = load i64, ptr %30, align 8, !tbaa !67
  %60 = load i64, ptr %33, align 8, !tbaa !38
  %61 = sub nsw i64 %60, %59
  store i64 %61, ptr %33, align 8, !tbaa !38
  %62 = load i64, ptr %36, align 8, !tbaa !68
  %63 = load i64, ptr %39, align 8, !tbaa !39
  %64 = sub nsw i64 %63, %62
  store i64 %64, ptr %39, align 8, !tbaa !39
  br label %65

65:                                               ; preds = %56, %53
  %66 = getelementptr inbounds nuw i8, ptr %0, i64 972
  %67 = load i32, ptr %66, align 4, !tbaa !95
  %.not57 = icmp eq i32 %67, 0
  br i1 %.not57, label %77, label %68

68:                                               ; preds = %65
  %69 = getelementptr inbounds nuw i8, ptr %0, i64 432
  %70 = load ptr, ptr %69, align 8, !tbaa !96
  tail call void @N_VDestroy(ptr noundef %70) #13
  store ptr null, ptr %69, align 8, !tbaa !96
  %71 = load i64, ptr %30, align 8, !tbaa !67
  %72 = load i64, ptr %33, align 8, !tbaa !38
  %73 = sub nsw i64 %72, %71
  store i64 %73, ptr %33, align 8, !tbaa !38
  %74 = load i64, ptr %36, align 8, !tbaa !68
  %75 = load i64, ptr %39, align 8, !tbaa !39
  %76 = sub nsw i64 %75, %74
  store i64 %76, ptr %39, align 8, !tbaa !39
  br label %77

77:                                               ; preds = %68, %65
  ret void
}